target datalayout = "e-m:e-p270:32:32-p271:32:32-p272:64:64-i64:64-i128:128-f80:128-n8:16:32:64-S128"
target triple = "x86_64-pc-linux-gnu"

%struct.___itt_id = type { i64, i64, i64 }
%"struct.cv::Ptr" = type { %"class.std::shared_ptr" }
%"class.std::shared_ptr" = type { %"class.std::__shared_ptr" }
%"class.std::__shared_ptr" = type { ptr, %"class.std::__shared_count" }
%"class.std::__shared_count" = type { ptr }
%"class.cv::utils::trace::details::Region::Impl" = type { ptr, ptr, ptr, i32, i32, i64, i64, i32, i8, %struct.___itt_id }
%"struct.cv::utils::trace::details::TraceManagerThreadLocal" = type { i32, i32, i64, ptr, %"class.std::deque", i32, i32, %"struct.cv::utils::trace::details::RegionStatistics", %"struct.cv::utils::trace::details::RegionStatisticsStatus", %"struct.cv::utils::trace::details::TraceManagerThreadLocal::StackEntry", %"struct.cv::utils::trace::details::RegionStatistics", %"struct.cv::utils::trace::details::RegionStatisticsStatus", i64, %"struct.cv::Ptr" }
%"class.std::deque" = type { %"class.std::_Deque_base" }
%"class.std::_Deque_base" = type { %"struct.std::_Deque_base<cv::utils::trace::details::TraceManagerThreadLocal::StackEntry, std::allocator<cv::utils::trace::details::TraceManagerThreadLocal::StackEntry>>::_Deque_impl" }
%"struct.std::_Deque_base<cv::utils::trace::details::TraceManagerThreadLocal::StackEntry, std::allocator<cv::utils::trace::details::TraceManagerThreadLocal::StackEntry>>::_Deque_impl" = type { %"struct.std::_Deque_base<cv::utils::trace::details::TraceManagerThreadLocal::StackEntry, std::allocator<cv::utils::trace::details::TraceManagerThreadLocal::StackEntry>>::_Deque_impl_data" }
%"struct.std::_Deque_base<cv::utils::trace::details::TraceManagerThreadLocal::StackEntry, std::allocator<cv::utils::trace::details::TraceManagerThreadLocal::StackEntry>>::_Deque_impl_data" = type { ptr, i64, %"struct.std::_Deque_iterator", %"struct.std::_Deque_iterator" }
%"struct.std::_Deque_iterator" = type { ptr, ptr, ptr, ptr }
%"struct.cv::utils::trace::details::TraceManagerThreadLocal::StackEntry" = type { ptr, ptr, i64 }
%"struct.cv::utils::trace::details::RegionStatistics" = type { i32, i64 }
%"struct.cv::utils::trace::details::RegionStatisticsStatus" = type { i32 }
%struct.___itt_domain = type { i32, ptr, ptr, i32, ptr, ptr }

@_ZN2cv5utils5trace7detailsL6domainE = internal global ptr null, align 8
@__itt_id_create_ptr__3_0 = external global ptr, align 8

; Function Attrs: mustprogress nounwind uwtable
define internal void @_ZL13__itt_id_makePvy(ptr dead_on_unwind noalias writable sret(%struct.___itt_id) align 8 %0, ptr noundef %1, i64 noundef %2) #8 {
  %4 = alloca ptr, align 8
  %5 = alloca i64, align 8
  store ptr %1, ptr %4, align 8, !tbaa !17
  store i64 %2, ptr %5, align 8, !tbaa !92
  call void @llvm.memset.p0.i64(ptr align 8 %0, i8 0, i64 24, i1 false)
  %6 = load ptr, ptr %4, align 8, !tbaa !17
  %7 = ptrtoint ptr %6 to i64
  %8 = getelementptr inbounds nuw %struct.___itt_id, ptr %0, i32 0, i32 0
  store i64 %7, ptr %8, align 8, !tbaa !108
  %9 = load i64, ptr %5, align 8, !tbaa !92
  %10 = getelementptr inbounds nuw %struct.___itt_id, ptr %0, i32 0, i32 1
  store i64 %9, ptr %10, align 8, !tbaa !109
  %11 = getelementptr inbounds nuw %struct.___itt_id, ptr %0, i32 0, i32 2
  store i64 0, ptr %11, align 8, !tbaa !110
  ret void
}

; Function Attrs: mustprogress uwtable
define void @_ZN2cv5utils5trace7details6Region4Impl14registerRegionERNS2_23TraceManagerThreadLocalE(ptr noundef nonnull align 8 dereferenceable(80) %0, ptr noundef nonnull align 8 dereferenceable(208) %1) #4 align 2 {
  %3 = alloca ptr, align 8
  %4 = alloca ptr, align 8
  %5 = alloca %struct.___itt_id, align 8
  %6 = alloca %struct.___itt_id, align 8
  store ptr %0, ptr %3, align 8, !tbaa !59
  store ptr %1, ptr %4, align 8, !tbaa !61
  %7 = load ptr, ptr %3, align 8
  %8 = call noundef zeroext i1 @_ZN2cv5utils5trace7detailsL12isITTEnabledEv()
  br i1 %8, label %9, label %51

9:                                                ; preds = %2
  %10 = getelementptr inbounds nuw %"class.cv::utils::trace::details::Region::Impl", ptr %7, i32 0, i32 8
  %11 = load i8, ptr %10, align 4, !tbaa !90, !range !26, !noundef !27
  %12 = trunc i8 %11 to i1
  br i1 %12, label %50, label %13

13:                                               ; preds = %9
  call void @llvm.lifetime.start.p0(i64 24, ptr %5) #3
  %14 = load ptr, ptr %4, align 8, !tbaa !61
  %15 = getelementptr inbounds nuw %"struct.cv::utils::trace::details::TraceManagerThreadLocal", ptr %14, i32 0, i32 0
  %16 = load i32, ptr %15, align 8, !tbaa !70
  %17 = add nsw i32 %16, 1
  %18 = sext i32 %17 to i64
  %19 = shl i64 %18, 32
  %20 = getelementptr inbounds nuw %"class.cv::utils::trace::details::Region::Impl", ptr %7, i32 0, i32 4
  %21 = load i32, ptr %20, align 4, !tbaa !86
  %22 = sext i32 %21 to i64
  %23 = or i64 %19, %22
  %24 = inttoptr i64 %23 to ptr
  %25 = getelementptr inbounds nuw %"class.cv::utils::trace::details::Region::Impl", ptr %7, i32 0, i32 4
  %26 = load i32, ptr %25, align 4, !tbaa !86
  %27 = sext i32 %26 to i64
  call void @_ZL13__itt_id_makePvy(ptr dead_on_unwind writable sret(%struct.___itt_id) align 8 %5, ptr noundef %24, i64 noundef %27)
  %28 = getelementptr inbounds nuw %"class.cv::utils::trace::details::Region::Impl", ptr %7, i32 0, i32 9
  call void @llvm.memcpy.p0.p0.i64(ptr align 8 %28, ptr align 8 %5, i64 24, i1 false), !tbaa.struct !91
  call void @llvm.lifetime.end.p0(i64 24, ptr %5) #3
  %29 = load ptr, ptr @_ZN2cv5utils5trace7detailsL6domainE, align 8, !tbaa !28
  %30 = icmp eq ptr %29, null
  br i1 %30, label %31, label %32

31:                                               ; preds = %13
  br label %48

32:                                               ; preds = %13
  %33 = load ptr, ptr @_ZN2cv5utils5trace7detailsL6domainE, align 8, !tbaa !28
  %34 = getelementptr inbounds nuw %struct.___itt_domain, ptr %33, i32 0, i32 0
  %35 = load volatile i32, ptr %34, align 8, !tbaa !96
  %36 = icmp ne i32 %35, 0
  br i1 %36, label %38, label %37

37:                                               ; preds = %32
  br label %47

38:                                               ; preds = %32
  %39 = load ptr, ptr @__itt_id_create_ptr__3_0, align 8, !tbaa !17
  %40 = icmp ne ptr %39, null
  br i1 %40, label %42, label %41

41:                                               ; preds = %38
  br label %46

42:                                               ; preds = %38
  %43 = load ptr, ptr @__itt_id_create_ptr__3_0, align 8, !tbaa !17
  %44 = load ptr, ptr @_ZN2cv5utils5trace7detailsL6domainE, align 8, !tbaa !28
  %45 = getelementptr inbounds nuw %"class.cv::utils::trace::details::Region::Impl", ptr %7, i32 0, i32 9
  call void @llvm.memcpy.p0.p0.i64(ptr align 8 %6, ptr align 8 %45, i64 24, i1 false), !tbaa.struct !91
  call void %43(ptr noundef %44, ptr noundef byval(%struct.___itt_id) align 8 %6)
  br label %46

46:                                               ; preds = %42, %41
  br label %47

47:                                               ; preds = %46, %37
  br label %48

48:                                               ; preds = %47, %31
  %49 = getelementptr inbounds nuw %"class.cv::utils::trace::details::Region::Impl", ptr %7, i32 0, i32 8
  store i8 1, ptr %49, align 4, !tbaa !90
  br label %50

50:                                               ; preds = %48, %9
  br label %51

51:                                               ; preds = %50, %2
  ret void
}