; Function Attrs: mustprogress uwtable
define void @_ZN2cv5utils5trace7details6Region4Impl14registerRegionERNS2_23TraceManagerThreadLocalE(ptr noundef nonnull align 8 captures(none) dereferenceable(80) %0, ptr noundef nonnull readonly align 8 captures(none) dereferenceable(208) %1) local_unnamed_addr #3 align 2 {
  %3 = tail call fastcc noundef zeroext i1 @_ZN2cv5utils5trace7detailsL12isITTEnabledEv()
  br i1 %3, label %4, label %27

4:                                                ; preds = %2
  %5 = getelementptr inbounds nuw i8, ptr %0, i64 52
  %6 = load i8, ptr %5, align 4, !tbaa !72, !range !21, !noundef !22
  %7 = trunc nuw i8 %6 to i1
  br i1 %7, label %27, label %8

8:                                                ; preds = %4
  %9 = load i32, ptr %1, align 8, !tbaa !52
  %10 = add nsw i32 %9, 1
  %11 = sext i32 %10 to i64
  %12 = shl nsw i64 %11, 32
  %13 = getelementptr inbounds nuw i8, ptr %0, i64 28
  %14 = load i32, ptr %13, align 4, !tbaa !68
  %15 = sext i32 %14 to i64
  %16 = or i64 %12, %15
  %17 = getelementptr inbounds nuw i8, ptr %0, i64 56
  store i64 %16, ptr %17, align 8, !tbaa !76
  %.sroa.4.0..sroa_idx = getelementptr inbounds nuw i8, ptr %0, i64 64
  store i64 %15, ptr %.sroa.4.0..sroa_idx, align 8, !tbaa !76
  %.sroa.5.0..sroa_idx = getelementptr inbounds nuw i8, ptr %0, i64 72
  store i64 0, ptr %.sroa.5.0..sroa_idx, align 8, !tbaa !76
  %18 = load ptr, ptr @_ZN2cv5utils5trace7detailsL6domainE, align 8, !tbaa !23
  %19 = icmp eq ptr %18, null
  br i1 %19, label %26, label %20

20:                                               ; preds = %8
  %21 = load volatile i32, ptr %18, align 8, !tbaa !77
  %22 = icmp ne i32 %21, 0
  %23 = load ptr, ptr @__itt_id_create_ptr__3_0, align 8
  %24 = icmp ne ptr %23, null
  %or.cond = select i1 %22, i1 %24, i1 false
  br i1 %or.cond, label %25, label %26

25:                                               ; preds = %20
  tail call void %23(ptr noundef nonnull %18, ptr noundef nonnull byval(%struct.___itt_id) align 8 %17)
  br label %26

26:                                               ; preds = %20, %25, %8
  store i8 1, ptr %5, align 4, !tbaa !72
  br label %27

27:                                               ; preds = %4, %26, %2
  ret void
}